target datalayout = "e-m:e-p270:32:32-p271:32:32-p272:64:64-i64:64-i128:128-f80:128-n8:16:32:64-S128"
target triple = "x86_64-pc-linux-gnu"

%"class.o3dgc::Arithmetic_Codec" = type <{ ptr, ptr, ptr, i32, i32, i32, i32, i32, [4 x i8] }>

; Function Attrs: mustprogress nounwind uwtable
define hidden void @_ZN5o3dgc16Arithmetic_CodecD2Ev(ptr noundef nonnull align 8 dereferenceable(44) %0) unnamed_addr #3 align 2 {
  %2 = alloca ptr, align 8
  store ptr %0, ptr %2, align 8
  %3 = load ptr, ptr %2, align 8
  %4 = getelementptr inbounds nuw %"class.o3dgc::Arithmetic_Codec", ptr %3, i32 0, i32 1
  %5 = load ptr, ptr %4, align 8
  %6 = icmp eq ptr %5, null
  br i1 %6, label %8, label %7

7:                                                ; preds = %1
  call void @_ZdaPv(ptr noundef %5) #14
  br label %8

8:                                                ; preds = %7, %1
  ret void
}